target datalayout = "e-m:e-p270:32:32-p271:32:32-p272:64:64-i64:64-i128:128-f80:128-n8:16:32:64-S128"
target triple = "x86_64-pc-linux-gnu"

%struct.LOCALNET = type { ptr, [4 x i32], [4 x i32], i32 }
%struct.optstruct = type { ptr, ptr, ptr, i64, i32, i32, i32, i32, ptr, ptr, ptr }

@lnet = dso_local global ptr null, align 8
@.str.17 = private unnamed_addr constant [9 x i8] c"LocalNet\00", align 1
@.str.18 = private unnamed_addr constant [2 x i8] c"/\00", align 1
@.str.19 = private unnamed_addr constant [6 x i8] c"local\00", align 1
@.str.27 = private unnamed_addr constant [40 x i8] c"Out of memory while resolving LocalNet\0A\00", align 1
@.str.28 = private unnamed_addr constant [35 x i8] c"Bad netmask '/%s' for LocalNet %s\0A\00", align 1

; Function Attrs: nounwind uwtable
define dso_local void @localnets_free() #0 {
  %1 = alloca ptr, align 8
  br label %2

2:                                                ; preds = %5, %0
  %3 = load ptr, ptr @lnet, align 8
  %4 = icmp ne ptr %3, null
  br i1 %4, label %5, label %11

5:                                                ; preds = %2
  %6 = load ptr, ptr @lnet, align 8
  %7 = getelementptr inbounds %struct.LOCALNET, ptr %6, i32 0, i32 0
  %8 = load ptr, ptr %7, align 8
  store ptr %8, ptr %1, align 8
  %9 = load ptr, ptr @lnet, align 8
  call void @free(ptr noundef %9) #8
  %10 = load ptr, ptr %1, align 8
  store ptr %10, ptr @lnet, align 8
  br label %2

11:                                               ; preds = %2
  ret void
}

; Function Attrs: nounwind uwtable
define internal ptr @localnet(ptr noundef %0, ptr noundef %1) #0 {
  %3 = alloca ptr, align 8
  %4 = alloca ptr, align 8
  %5 = alloca ptr, align 8
  %6 = alloca ptr, align 8
  %7 = alloca i32, align 4
  %8 = alloca i32, align 4
  store ptr %0, ptr %4, align 8
  store ptr %1, ptr %5, align 8
  %9 = call noalias ptr @malloc(i64 noundef 48) #10
  store ptr %9, ptr %6, align 8
  %10 = load ptr, ptr %6, align 8
  %11 = icmp ne ptr %10, null
  br i1 %11, label %14, label %12

12:                                               ; preds = %2
  %13 = call i32 (i32, ptr, ...) @logg(i32 noundef 5, ptr noundef @.str.27)
  store ptr null, ptr %3, align 8
  br label %154

14:                                               ; preds = %2
  %15 = load ptr, ptr %4, align 8
  %16 = load ptr, ptr %6, align 8
  %17 = getelementptr inbounds %struct.LOCALNET, ptr %16, i32 0, i32 3
  %18 = load ptr, ptr %6, align 8
  %19 = getelementptr inbounds %struct.LOCALNET, ptr %18, i32 0, i32 1
  %20 = getelementptr inbounds [4 x i32], ptr %19, i64 0, i64 0
  %21 = call i32 @resolve(ptr noundef %15, ptr noundef %17, ptr noundef %20)
  %22 = icmp ne i32 %21, 0
  br i1 %22, label %23, label %25

23:                                               ; preds = %14
  %24 = load ptr, ptr %6, align 8
  call void @free(ptr noundef %24) #8
  store ptr null, ptr %3, align 8
  br label %154

25:                                               ; preds = %14
  %26 = load ptr, ptr %6, align 8
  %27 = getelementptr inbounds %struct.LOCALNET, ptr %26, i32 0, i32 3
  %28 = load i32, ptr %27, align 8
  %29 = icmp eq i32 %28, 0
  br i1 %29, label %30, label %44

30:                                               ; preds = %25
  %31 = load ptr, ptr %6, align 8
  %32 = getelementptr inbounds %struct.LOCALNET, ptr %31, i32 0, i32 2
  %33 = getelementptr inbounds [4 x i32], ptr %32, i64 0, i64 3
  store i32 0, ptr %33, align 4
  %34 = load ptr, ptr %6, align 8
  %35 = getelementptr inbounds %struct.LOCALNET, ptr %34, i32 0, i32 2
  %36 = getelementptr inbounds [4 x i32], ptr %35, i64 0, i64 2
  store i32 0, ptr %36, align 8
  %37 = load ptr, ptr %6, align 8
  %38 = getelementptr inbounds %struct.LOCALNET, ptr %37, i32 0, i32 2
  %39 = getelementptr inbounds [4 x i32], ptr %38, i64 0, i64 1
  store i32 0, ptr %39, align 4
  %40 = load ptr, ptr %6, align 8
  %41 = getelementptr inbounds %struct.LOCALNET, ptr %40, i32 0, i32 2
  %42 = getelementptr inbounds [4 x i32], ptr %41, i64 0, i64 0
  store i32 0, ptr %42, align 8
  %43 = load ptr, ptr %6, align 8
  store ptr %43, ptr %3, align 8
  br label %154

44:                                               ; preds = %25
  %45 = load ptr, ptr %5, align 8
  %46 = icmp ne ptr %45, null
  br i1 %46, label %47, label %51

47:                                               ; preds = %44
  %48 = load ptr, ptr %5, align 8
  %49 = load i8, ptr %48, align 1
  %50 = icmp ne i8 %49, 0
  br i1 %50, label %59, label %51

51:                                               ; preds = %47, %44
  %52 = load ptr, ptr %6, align 8
  %53 = getelementptr inbounds %struct.LOCALNET, ptr %52, i32 0, i32 3
  %54 = load i32, ptr %53, align 8
  %55 = icmp eq i32 %54, 2
  %56 = zext i1 %55 to i32
  %57 = mul nsw i32 96, %56
  %58 = add nsw i32 32, %57
  store i32 %58, ptr %7, align 4
  br label %62

59:                                               ; preds = %47
  %60 = load ptr, ptr %5, align 8
  %61 = call i32 @atoi(ptr noundef %60) #11
  store i32 %61, ptr %7, align 4
  br label %62

62:                                               ; preds = %59, %51
  %63 = load ptr, ptr %6, align 8
  %64 = getelementptr inbounds %struct.LOCALNET, ptr %63, i32 0, i32 3
  %65 = load i32, ptr %64, align 8
  %66 = icmp eq i32 %65, 2
  br i1 %66, label %67, label %70

67:                                               ; preds = %62
  %68 = load i32, ptr %7, align 4
  %69 = icmp ugt i32 %68, 128
  br i1 %69, label %78, label %70

70:                                               ; preds = %67, %62
  %71 = load ptr, ptr %6, align 8
  %72 = getelementptr inbounds %struct.LOCALNET, ptr %71, i32 0, i32 3
  %73 = load i32, ptr %72, align 8
  %74 = icmp eq i32 %73, 1
  br i1 %74, label %75, label %83

75:                                               ; preds = %70
  %76 = load i32, ptr %7, align 4
  %77 = icmp ugt i32 %76, 32
  br i1 %77, label %78, label %83

78:                                               ; preds = %75, %67
  %79 = load ptr, ptr %5, align 8
  %80 = load ptr, ptr %4, align 8
  %81 = call i32 (i32, ptr, ...) @logg(i32 noundef 5, ptr noundef @.str.28, ptr noundef %79, ptr noundef %80)
  %82 = load ptr, ptr %6, align 8
  call void @free(ptr noundef %82) #8
  store ptr null, ptr %3, align 8
  br label %154

83:                                               ; preds = %75, %70
  %84 = load ptr, ptr %6, align 8
  %85 = getelementptr inbounds %struct.LOCALNET, ptr %84, i32 0, i32 2
  %86 = getelementptr inbounds [4 x i32], ptr %85, i64 0, i64 3
  store i32 0, ptr %86, align 4
  %87 = load ptr, ptr %6, align 8
  %88 = getelementptr inbounds %struct.LOCALNET, ptr %87, i32 0, i32 2
  %89 = getelementptr inbounds [4 x i32], ptr %88, i64 0, i64 2
  store i32 0, ptr %89, align 8
  %90 = load ptr, ptr %6, align 8
  %91 = getelementptr inbounds %struct.LOCALNET, ptr %90, i32 0, i32 2
  %92 = getelementptr inbounds [4 x i32], ptr %91, i64 0, i64 1
  store i32 0, ptr %92, align 4
  %93 = load ptr, ptr %6, align 8
  %94 = getelementptr inbounds %struct.LOCALNET, ptr %93, i32 0, i32 2
  %95 = getelementptr inbounds [4 x i32], ptr %94, i64 0, i64 0
  store i32 0, ptr %95, align 8
  store i32 0, ptr %8, align 4
  br label %96

96:                                               ; preds = %113, %83
  %97 = load i32, ptr %8, align 4
  %98 = load i32, ptr %7, align 4
  %99 = icmp ult i32 %97, %98
  br i1 %99, label %100, label %116

100:                                              ; preds = %96
  %101 = load i32, ptr %8, align 4
  %102 = and i32 %101, 31
  %103 = sub i32 31, %102
  %104 = shl i32 1, %103
  %105 = load ptr, ptr %6, align 8
  %106 = getelementptr inbounds %struct.LOCALNET, ptr %105, i32 0, i32 2
  %107 = load i32, ptr %8, align 4
  %108 = lshr i32 %107, 5
  %109 = zext i32 %108 to i64
  %110 = getelementptr inbounds [4 x i32], ptr %106, i64 0, i64 %109
  %111 = load i32, ptr %110, align 4
  %112 = or i32 %111, %104
  store i32 %112, ptr %110, align 4
  br label %113

113:                                              ; preds = %100
  %114 = load i32, ptr %8, align 4
  %115 = add i32 %114, 1
  store i32 %115, ptr %8, align 4
  br label %96

116:                                              ; preds = %96
  %117 = load ptr, ptr %6, align 8
  %118 = getelementptr inbounds %struct.LOCALNET, ptr %117, i32 0, i32 2
  %119 = getelementptr inbounds [4 x i32], ptr %118, i64 0, i64 0
  %120 = load i32, ptr %119, align 8
  %121 = load ptr, ptr %6, align 8
  %122 = getelementptr inbounds %struct.LOCALNET, ptr %121, i32 0, i32 1
  %123 = getelementptr inbounds [4 x i32], ptr %122, i64 0, i64 0
  %124 = load i32, ptr %123, align 8
  %125 = and i32 %124, %120
  store i32 %125, ptr %123, align 8
  %126 = load ptr, ptr %6, align 8
  %127 = getelementptr inbounds %struct.LOCALNET, ptr %126, i32 0, i32 2
  %128 = getelementptr inbounds [4 x i32], ptr %127, i64 0, i64 1
  %129 = load i32, ptr %128, align 4
  %130 = load ptr, ptr %6, align 8
  %131 = getelementptr inbounds %struct.LOCALNET, ptr %130, i32 0, i32 1
  %132 = getelementptr inbounds [4 x i32], ptr %131, i64 0, i64 1
  %133 = load i32, ptr %132, align 4
  %134 = and i32 %133, %129
  store i32 %134, ptr %132, align 4
  %135 = load ptr, ptr %6, align 8
  %136 = getelementptr inbounds %struct.LOCALNET, ptr %135, i32 0, i32 2
  %137 = getelementptr inbounds [4 x i32], ptr %136, i64 0, i64 2
  %138 = load i32, ptr %137, align 8
  %139 = load ptr, ptr %6, align 8
  %140 = getelementptr inbounds %struct.LOCALNET, ptr %139, i32 0, i32 1
  %141 = getelementptr inbounds [4 x i32], ptr %140, i64 0, i64 2
  %142 = load i32, ptr %141, align 8
  %143 = and i32 %142, %138
  store i32 %143, ptr %141, align 8
  %144 = load ptr, ptr %6, align 8
  %145 = getelementptr inbounds %struct.LOCALNET, ptr %144, i32 0, i32 2
  %146 = getelementptr inbounds [4 x i32], ptr %145, i64 0, i64 3
  %147 = load i32, ptr %146, align 4
  %148 = load ptr, ptr %6, align 8
  %149 = getelementptr inbounds %struct.LOCALNET, ptr %148, i32 0, i32 1
  %150 = getelementptr inbounds [4 x i32], ptr %149, i64 0, i64 3
  %151 = load i32, ptr %150, align 4
  %152 = and i32 %151, %147
  store i32 %152, ptr %150, align 4
  %153 = load ptr, ptr %6, align 8
  store ptr %153, ptr %3, align 8
  br label %154

154:                                              ; preds = %116, %78, %30, %23, %12
  %155 = load ptr, ptr %3, align 8
  ret ptr %155
}

; Function Attrs: nounwind uwtable
define dso_local i32 @localnets_init(ptr noundef %0) #0 {
  %2 = alloca i32, align 4
  %3 = alloca ptr, align 8
  %4 = alloca ptr, align 8
  %5 = alloca ptr, align 8
  %6 = alloca ptr, align 8
  %7 = alloca ptr, align 8
  store ptr %0, ptr %3, align 8
  %8 = load ptr, ptr %3, align 8
  %9 = call ptr @optget(ptr noundef %8, ptr noundef @.str.17)
  store ptr %9, ptr %4, align 8
  %10 = getelementptr inbounds %struct.optstruct, ptr %9, i32 0, i32 4
  %11 = load i32, ptr %10, align 8
  %12 = icmp ne i32 %11, 0
  br i1 %12, label %13, label %51

13:                                               ; preds = %1
  br label %14

14:                                               ; preds = %42, %13
  %15 = load ptr, ptr %4, align 8
  %16 = icmp ne ptr %15, null
  br i1 %16, label %17, label %50

17:                                               ; preds = %14
  %18 = load ptr, ptr %4, align 8
  %19 = getelementptr inbounds %struct.optstruct, ptr %18, i32 0, i32 2
  %20 = load ptr, ptr %19, align 8
  store ptr %20, ptr %5, align 8
  %21 = load ptr, ptr %5, align 8
  %22 = load i8, ptr @.str.18, align 1
  %23 = sext i8 %22 to i32
  %24 = call ptr @strrchr(ptr noundef %21, i32 noundef %23) #11
  store ptr %24, ptr %7, align 8
  %25 = load ptr, ptr %7, align 8
  %26 = icmp ne ptr %25, null
  br i1 %26, label %27, label %31

27:                                               ; preds = %17
  %28 = load ptr, ptr %7, align 8
  store i8 0, ptr %28, align 1
  %29 = load ptr, ptr %7, align 8
  %30 = getelementptr inbounds i8, ptr %29, i32 1
  store ptr %30, ptr %7, align 8
  br label %31

31:                                               ; preds = %27, %17
  %32 = load ptr, ptr %5, align 8
  %33 = call i32 @strcasecmp(ptr noundef %32, ptr noundef @.str.19) #11
  %34 = icmp ne i32 %33, 0
  br i1 %34, label %36, label %35

35:                                               ; preds = %31
  store ptr null, ptr %5, align 8
  br label %36

36:                                               ; preds = %35, %31
  %37 = load ptr, ptr %5, align 8
  %38 = load ptr, ptr %7, align 8
  %39 = call ptr @localnet(ptr noundef %37, ptr noundef %38)
  store ptr %39, ptr %6, align 8
  %40 = icmp eq ptr %39, null
  br i1 %40, label %41, label %42

41:                                               ; preds = %36
  call void @localnets_free()
  store i32 1, ptr %2, align 4
  br label %52

42:                                               ; preds = %36
  %43 = load ptr, ptr @lnet, align 8
  %44 = load ptr, ptr %6, align 8
  %45 = getelementptr inbounds %struct.LOCALNET, ptr %44, i32 0, i32 0
  store ptr %43, ptr %45, align 8
  %46 = load ptr, ptr %6, align 8
  store ptr %46, ptr @lnet, align 8
  %47 = load ptr, ptr %4, align 8
  %48 = getelementptr inbounds %struct.optstruct, ptr %47, i32 0, i32 8
  %49 = load ptr, ptr %48, align 8
  store ptr %49, ptr %4, align 8
  br label %14

50:                                               ; preds = %14
  br label %51

51:                                               ; preds = %50, %1
  store i32 0, ptr %2, align 4
  br label %52

52:                                               ; preds = %51, %41
  %53 = load i32, ptr %2, align 4
  ret i32 %53
}