; Function Attrs: nounwind uwtable
define dso_local noundef i32 @localnets_init(ptr noundef %0) local_unnamed_addr #0 {
  %2 = tail call ptr @optget(ptr noundef %0, ptr noundef nonnull @.str.17) #13
  %3 = getelementptr inbounds i8, ptr %2, i64 32
  %4 = load i32, ptr %3, align 8
  %5 = icmp ne i32 %4, 0
  %6 = icmp ne ptr %2, null
  %or.cond = and i1 %6, %5
  br i1 %or.cond, label %.preheader, label %localnets_free.exit

.preheader:                                       ; preds = %1, %localnet.exit
  %.015 = phi ptr [ %61, %localnet.exit ], [ %2, %1 ]
  %7 = getelementptr inbounds i8, ptr %.015, i64 16
  %8 = load ptr, ptr %7, align 8
  %9 = tail call ptr @strrchr(ptr noundef nonnull dereferenceable(1) %8, i32 noundef 47) #16
  %.not = icmp eq ptr %9, null
  br i1 %.not, label %12, label %10

10:                                               ; preds = %.preheader
  store i8 0, ptr %9, align 1
  %11 = getelementptr inbounds i8, ptr %9, i64 1
  br label %12

12:                                               ; preds = %10, %.preheader
  %.0 = phi ptr [ %11, %10 ], [ null, %.preheader ]
  %13 = tail call i32 @strcasecmp(ptr noundef %8, ptr noundef nonnull @.str.19) #16
  %.not20 = icmp eq i32 %13, 0
  %spec.store.select = select i1 %.not20, ptr null, ptr %8
  %14 = tail call noalias dereferenceable_or_null(48) ptr @malloc(i64 noundef 48) #15
  %.not.i = icmp eq ptr %14, null
  br i1 %.not.i, label %15, label %17

15:                                               ; preds = %12
  %16 = tail call i32 (i32, ptr, ...) @logg(i32 noundef 5, ptr noundef nonnull @.str.27) #13
  br label %56

17:                                               ; preds = %12
  %18 = getelementptr inbounds i8, ptr %14, i64 40
  %19 = getelementptr inbounds i8, ptr %14, i64 8
  %20 = tail call fastcc i32 @resolve(ptr noundef %spec.store.select, ptr noundef nonnull %18, ptr noundef nonnull %19), !range !5
  %.not48.i = icmp eq i32 %20, 0
  br i1 %.not48.i, label %22, label %21

21:                                               ; preds = %17
  tail call void @free(ptr noundef nonnull %14) #13
  br label %56

22:                                               ; preds = %17
  %23 = load i32, ptr %18, align 8
  %24 = icmp eq i32 %23, 0
  br i1 %24, label %25, label %27

25:                                               ; preds = %22
  %26 = getelementptr inbounds i8, ptr %14, i64 24
  tail call void @llvm.memset.p0.i64(ptr noundef nonnull align 8 dereferenceable(16) %26, i8 0, i64 16, i1 false)
  br label %localnet.exit

27:                                               ; preds = %22
  %.not49.i = icmp eq ptr %.0, null
  br i1 %.not49.i, label %.thread.i, label %28

28:                                               ; preds = %27
  %29 = load i8, ptr %.0, align 1
  %.not50.i = icmp eq i8 %29, 0
  br i1 %.not50.i, label %.thread.i, label %32

.thread.i:                                        ; preds = %28, %27
  %30 = icmp eq i32 %23, 2
  %31 = select i1 %30, i32 128, i32 32
  br label %36

32:                                               ; preds = %28
  %33 = tail call i32 @atoi(ptr nocapture noundef nonnull %.0) #16
  %34 = icmp eq i32 %23, 2
  %35 = icmp ugt i32 %33, 128
  %or.cond.i = select i1 %34, i1 %35, i1 false
  br i1 %or.cond.i, label %39, label %36

36:                                               ; preds = %32, %.thread.i
  %.04453.i = phi i32 [ %31, %.thread.i ], [ %33, %32 ]
  %37 = icmp eq i32 %23, 1
  %38 = icmp ugt i32 %.04453.i, 32
  %or.cond3.i = select i1 %37, i1 %38, i1 false
  br i1 %or.cond3.i, label %39, label %41

39:                                               ; preds = %36, %32
  %40 = tail call i32 (i32, ptr, ...) @logg(i32 noundef 5, ptr noundef nonnull @.str.28, ptr noundef %.0, ptr noundef %spec.store.select) #13
  tail call void @free(ptr noundef nonnull %14) #13
  br label %56

41:                                               ; preds = %36
  %42 = getelementptr inbounds i8, ptr %14, i64 24
  %.not55.i = icmp eq i32 %.04453.i, 0
  tail call void @llvm.memset.p0.i64(ptr noundef nonnull align 8 dereferenceable(16) %42, i8 0, i64 16, i1 false)
  br i1 %.not55.i, label %._crit_edge.i, label %.lr.ph.i

.lr.ph.i:                                         ; preds = %41, %.lr.ph.i
  %.054.i = phi i32 [ %51, %.lr.ph.i ], [ 0, %41 ]
  %43 = and i32 %.054.i, 31
  %44 = xor i32 %43, 31
  %45 = shl nuw i32 1, %44
  %46 = lshr i32 %.054.i, 5
  %47 = zext nneg i32 %46 to i64
  %48 = getelementptr inbounds [4 x i32], ptr %42, i64 0, i64 %47
  %49 = load i32, ptr %48, align 4
  %50 = or i32 %45, %49
  store i32 %50, ptr %48, align 4
  %51 = add nuw i32 %.054.i, 1
  %exitcond.not.i = icmp eq i32 %51, %.04453.i
  br i1 %exitcond.not.i, label %._crit_edge.loopexit.i, label %.lr.ph.i

._crit_edge.loopexit.i:                           ; preds = %.lr.ph.i
  %52 = load <4 x i32>, ptr %42, align 8
  br label %._crit_edge.i

._crit_edge.i:                                    ; preds = %._crit_edge.loopexit.i, %41
  %53 = phi <4 x i32> [ %52, %._crit_edge.loopexit.i ], [ zeroinitializer, %41 ]
  %54 = load <4 x i32>, ptr %19, align 8
  %55 = and <4 x i32> %54, %53
  store <4 x i32> %55, ptr %19, align 8
  br label %localnet.exit

56:                                               ; preds = %21, %39, %15
  %.pr.i = load ptr, ptr @lnet, align 8
  %.not1.i = icmp eq ptr %.pr.i, null
  br i1 %.not1.i, label %localnets_free.exit, label %.lr.ph.i21

.lr.ph.i21:                                       ; preds = %56, %.lr.ph.i21
  %57 = phi ptr [ %58, %.lr.ph.i21 ], [ %.pr.i, %56 ]
  %58 = load ptr, ptr %57, align 8
  tail call void @free(ptr noundef nonnull %57) #13
  store ptr %58, ptr @lnet, align 8
  %.not.i22 = icmp eq ptr %58, null
  br i1 %.not.i22, label %localnets_free.exit, label %.lr.ph.i21

localnet.exit:                                    ; preds = %._crit_edge.i, %25
  %59 = load ptr, ptr @lnet, align 8
  store ptr %59, ptr %14, align 8
  store ptr %14, ptr @lnet, align 8
  %60 = getelementptr inbounds i8, ptr %.015, i64 48
  %61 = load ptr, ptr %60, align 8
  %.old1.not = icmp eq ptr %61, null
  br i1 %.old1.not, label %localnets_free.exit, label %.preheader

localnets_free.exit:                              ; preds = %localnet.exit, %.lr.ph.i21, %56, %1
  %.014 = phi i32 [ 0, %1 ], [ 1, %56 ], [ 1, %.lr.ph.i21 ], [ 0, %localnet.exit ]
  ret i32 %.014
}